; ModuleID = '27/1461.c'
source_filename = "27/1461.c"
target datalayout = "e-m:e-p270:32:32-p271:32:32-p272:64:64-i64:64-f80:128-n8:16:32:64-S128"
target triple = "x86_64-pc-linux-gnu"

@.str = private unnamed_addr constant [3 x i8] c"%d\00", align 1
@.str.1 = private unnamed_addr constant [10 x i8] c"%lf%lf%lf\00", align 1
@.str.2 = private unnamed_addr constant [19 x i8] c"x1=%.5lf;x2=%.5lf\0A\00", align 1
@.str.3 = private unnamed_addr constant [13 x i8] c"x1=x2=%.5lf\0A\00", align 1
@.str.4 = private unnamed_addr constant [33 x i8] c"x1=%.5lf+%.5lfi;x2=%.5lf-%.5lfi\0A\00", align 1

; Function Attrs: noinline nounwind uwtable
define dso_local i32 @main() #0 {
  %1 = alloca i32, align 4
  %2 = alloca i32, align 4
  %3 = alloca i32, align 4
  %4 = alloca double, align 8
  %5 = alloca double, align 8
  %6 = alloca double, align 8
  %7 = alloca double, align 8
  %8 = alloca double, align 8
  %9 = alloca double, align 8
  %10 = alloca double, align 8
  %11 = alloca double, align 8
  store i32 0, i32* %1, align 4
  %12 = call i32 (i8*, ...) @__isoc99_scanf(i8* getelementptr inbounds ([3 x i8], [3 x i8]* @.str, i64 0, i64 0), i32* %2)
  store i32 0, i32* %3, align 4
  br label %13

13:                                               ; preds = %105, %0
  %14 = load i32, i32* %3, align 4
  %15 = load i32, i32* %2, align 4
  %16 = icmp slt i32 %14, %15
  br i1 %16, label %17, label %108

17:                                               ; preds = %13
  %18 = call i32 (i8*, ...) @__isoc99_scanf(i8* getelementptr inbounds ([10 x i8], [10 x i8]* @.str.1, i64 0, i64 0), double* %4, double* %5, double* %6)
  %19 = load double, double* %5, align 8
  %20 = load double, double* %5, align 8
  %21 = fmul double %19, %20
  %22 = load double, double* %4, align 8
  %23 = fmul double 4.000000e+00, %22
  %24 = load double, double* %6, align 8
  %25 = fmul double %23, %24
  %26 = fsub double %21, %25
  store double %26, double* %7, align 8
  %27 = load double, double* %7, align 8
  %28 = fcmp ogt double %27, 0.000000e+00
  br i1 %28, label %29, label %65

29:                                               ; preds = %17
  %30 = load double, double* %5, align 8
  %31 = fcmp oeq double %30, 0.000000e+00
  br i1 %31, label %32, label %44

32:                                               ; preds = %29
  %33 = load double, double* %7, align 8
  %34 = call double @sqrt(double %33) #3
  %35 = load double, double* %4, align 8
  %36 = fmul double 2.000000e+00, %35
  %37 = fdiv double %34, %36
  store double %37, double* %10, align 8
  %38 = load double, double* %7, align 8
  %39 = call double @sqrt(double %38) #3
  %40 = fneg double %39
  %41 = load double, double* %4, align 8
  %42 = fmul double 2.000000e+00, %41
  %43 = fdiv double %40, %42
  store double %43, double* %11, align 8
  br label %61

44:                                               ; preds = %29
  %45 = load double, double* %5, align 8
  %46 = fneg double %45
  %47 = load double, double* %7, align 8
  %48 = call double @sqrt(double %47) #3
  %49 = fadd double %46, %48
  %50 = load double, double* %4, align 8
  %51 = fmul double 2.000000e+00, %50
  %52 = fdiv double %49, %51
  store double %52, double* %10, align 8
  %53 = load double, double* %5, align 8
  %54 = fneg double %53
  %55 = load double, double* %7, align 8
  %56 = call double @sqrt(double %55) #3
  %57 = fsub double %54, %56
  %58 = load double, double* %4, align 8
  %59 = fmul double 2.000000e+00, %58
  %60 = fdiv double %57, %59
  store double %60, double* %11, align 8
  br label %61

61:                                               ; preds = %44, %32
  %62 = load double, double* %10, align 8
  %63 = load double, double* %11, align 8
  %64 = call i32 (i8*, ...) @printf(i8* getelementptr inbounds ([19 x i8], [19 x i8]* @.str.2, i64 0, i64 0), double %62, double %63)
  br label %104

65:                                               ; preds = %17
  %66 = load double, double* %7, align 8
  %67 = fcmp oeq double %66, 0.000000e+00
  br i1 %67, label %68, label %81

68:                                               ; preds = %65
  %69 = load double, double* %5, align 8
  %70 = fcmp oeq double %69, 0.000000e+00
  br i1 %70, label %71, label %72

71:                                               ; preds = %68
  store double 0.000000e+00, double* %11, align 8
  store double 0.000000e+00, double* %10, align 8
  br label %78

72:                                               ; preds = %68
  %73 = load double, double* %5, align 8
  %74 = fneg double %73
  %75 = load double, double* %4, align 8
  %76 = fmul double 2.000000e+00, %75
  %77 = fdiv double %74, %76
  store double %77, double* %11, align 8
  store double %77, double* %10, align 8
  br label %78

78:                                               ; preds = %72, %71
  %79 = load double, double* %10, align 8
  %80 = call i32 (i8*, ...) @printf(i8* getelementptr inbounds ([13 x i8], [13 x i8]* @.str.3, i64 0, i64 0), double %79)
  br label %103

81:                                               ; preds = %65
  %82 = load double, double* %5, align 8
  %83 = fcmp oeq double %82, 0.000000e+00
  br i1 %83, label %84, label %85

84:                                               ; preds = %81
  store double 0.000000e+00, double* %8, align 8
  br label %91

85:                                               ; preds = %81
  %86 = load double, double* %5, align 8
  %87 = fneg double %86
  %88 = load double, double* %4, align 8
  %89 = fmul double %88, 2.000000e+00
  %90 = fdiv double %87, %89
  store double %90, double* %8, align 8
  br label %91

91:                                               ; preds = %85, %84
  %92 = load double, double* %7, align 8
  %93 = fneg double %92
  %94 = call double @sqrt(double %93) #3
  %95 = load double, double* %4, align 8
  %96 = fmul double 2.000000e+00, %95
  %97 = fdiv double %94, %96
  store double %97, double* %9, align 8
  %98 = load double, double* %8, align 8
  %99 = load double, double* %9, align 8
  %100 = load double, double* %8, align 8
  %101 = load double, double* %9, align 8
  %102 = call i32 (i8*, ...) @printf(i8* getelementptr inbounds ([33 x i8], [33 x i8]* @.str.4, i64 0, i64 0), double %98, double %99, double %100, double %101)
  br label %103

103:                                              ; preds = %91, %78
  br label %104

104:                                              ; preds = %103, %61
  br label %105

105:                                              ; preds = %104
  %106 = load i32, i32* %3, align 4
  %107 = add nsw i32 %106, 1
  store i32 %107, i32* %3, align 4
  br label %13

108:                                              ; preds = %13
  ret i32 0
}

declare dso_local i32 @__isoc99_scanf(i8*, ...) #1

; Function Attrs: nounwind
declare dso_local double @sqrt(double) #2

declare dso_local i32 @printf(i8*, ...) #1


!llvm.module.flags = !{!0}
!llvm.ident = !{!1}

!0 = !{i32 1, !"wchar_size", i32 4}
!1 = !{!"clang version 10.0.0-4ubuntu1 "}
